; Function Attrs: mustprogress uwtable
define noundef zeroext i1 @_ZNK6icu_7713DecimalFormat15fastFormatInt64ElRNS_13UnicodeStringE(ptr noundef nonnull readonly align 8 captures(none) dereferenceable(72) %0, i64 noundef %1, ptr noundef nonnull align 8 dereferenceable(64) %2) local_unnamed_addr #1 align 2 {
  %4 = getelementptr inbounds nuw i8, ptr %0, i64 64
  %5 = load ptr, ptr %4, align 8, !tbaa !25
  %6 = getelementptr inbounds nuw i8, ptr %5, i64 4528
  %7 = load i8, ptr %6, align 8, !tbaa !112, !range !45, !noundef !49
  %8 = trunc nuw i8 %7 to i1
  %9 = add i64 %1, 2147483647
  %or.cond = icmp ult i64 %9, 4294967295
  %or.cond8.not = and i1 %or.cond, %8
  br i1 %or.cond8.not, label %10, label %13

10:                                               ; preds = %3
  %11 = trunc nsw i64 %1 to i32
  %12 = icmp slt i64 %1, 0
  tail call void @_ZNK6icu_7713DecimalFormat17doFastFormatInt32EibRNS_13UnicodeStringE(ptr noundef nonnull align 8 dereferenceable(72) %0, i32 noundef %11, i1 noundef zeroext %12, ptr noundef nonnull align 8 dereferenceable(64) %2)
  br label %13

13:                                               ; preds = %3, %10
  ret i1 %or.cond8.not
}